target datalayout = "e-m:e-p270:32:32-p271:32:32-p272:64:64-i64:64-i128:128-f80:128-n8:16:32:64-S128"
target triple = "x86_64-pc-linux-gnu"

%struct.pa_sample_spec = type { i32, i32, i8 }
%struct.PaPulseAudio_Stream = type { %struct.PaUtilStreamRepresentation, %struct.PaUtilCpuLoadMeasurer, %struct.PaUtilBufferProcessor, ptr, i64, ptr, ptr, %struct.pa_sample_spec, %struct.pa_sample_spec, ptr, ptr, %struct.pa_buffer_attr, %struct.pa_buffer_attr, i32, i32, i32, i32, i64, i64, i32, i32, i32, i32, ptr, ptr, %struct.PaUtilRingBuffer, i64, i32, i32, i32, i32 }
%struct.PaUtilStreamRepresentation = type { i64, ptr, ptr, ptr, ptr, ptr, %struct.PaStreamInfo }
%struct.PaStreamInfo = type { i32, double, double, double }
%struct.PaUtilCpuLoadMeasurer = type { double, double, double }
%struct.PaUtilBufferProcessor = type { i64, i64, i32, i32, i32, i32, i64, i32, i32, i32, i32, ptr, ptr, i32, i32, i32, i32, ptr, ptr, i64, i64, ptr, ptr, i64, ptr, ptr, i64, ptr, i64, i32, [2 x i64], [2 x ptr], i32, [2 x i64], [2 x ptr], %struct.PaUtilTriangularDitherGenerator, double, ptr, ptr }
%struct.PaUtilTriangularDitherGenerator = type { i32, i32, i32 }
%struct.pa_buffer_attr = type { i32, i32, i32, i32, i32 }
%struct.PaUtilRingBuffer = type { i64, i64, i64, i64, i64, i64, ptr }

; Function Attrs: nounwind uwtable
define void @PaPulseAudio_StreamPlaybackCb(ptr noundef %0, i64 noundef %1, ptr noundef %2) #0 {
  %4 = alloca ptr, align 8
  %5 = alloca i64, align 8
  %6 = alloca ptr, align 8
  %7 = alloca ptr, align 8
  store ptr %0, ptr %4, align 8, !tbaa !3
  store i64 %1, ptr %5, align 8, !tbaa !12
  store ptr %2, ptr %6, align 8, !tbaa !19
  call void @llvm.lifetime.start.p0(i64 8, ptr %7) #6
  %8 = load ptr, ptr %6, align 8, !tbaa !19
  store ptr %8, ptr %7, align 8, !tbaa !42
  %9 = load ptr, ptr %7, align 8, !tbaa !42
  %10 = getelementptr inbounds nuw %struct.PaPulseAudio_Stream, ptr %9, i32 0, i32 2
  %11 = getelementptr inbounds nuw %struct.PaUtilBufferProcessor, ptr %10, i32 0, i32 37
  %12 = load ptr, ptr %11, align 8, !tbaa !54
  %13 = icmp ne ptr %12, null
  br i1 %13, label %14, label %18

14:                                               ; preds = %3
  %15 = load ptr, ptr %7, align 8, !tbaa !42
  %16 = load i64, ptr %5, align 8, !tbaa !12
  %17 = call i32 @_PaPulseAudio_ProcessAudio(ptr noundef %15, i64 noundef %16)
  br label %18

18:                                               ; preds = %14, %3
  %19 = load ptr, ptr %7, align 8, !tbaa !42
  %20 = getelementptr inbounds nuw %struct.PaPulseAudio_Stream, ptr %19, i32 0, i32 5
  %21 = load ptr, ptr %20, align 8, !tbaa !55
  call void @pa_threaded_mainloop_signal(ptr noundef %21, i32 noundef 0)
  call void @llvm.lifetime.end.p0(i64 8, ptr %7) #6
  ret void
}