; Function Attrs: nounwind uwtable
define void @PaPulseAudio_StreamPlaybackCb(ptr readnone captures(none) %0, i64 noundef %1, ptr noundef %2) #0 {
  %4 = getelementptr inbounds nuw i8, ptr %2, i64 392
  %5 = load ptr, ptr %4, align 8, !tbaa !45
  %.not = icmp eq ptr %5, null
  br i1 %.not, label %7, label %6

6:                                                ; preds = %3
  tail call fastcc void @_PaPulseAudio_ProcessAudio(ptr noundef nonnull %2, i64 noundef %1)
  br label %7

7:                                                ; preds = %6, %3
  %8 = getelementptr inbounds nuw i8, ptr %2, i64 424
  %9 = load ptr, ptr %8, align 8, !tbaa !46
  tail call void @pa_threaded_mainloop_signal(ptr noundef %9, i32 noundef 0) #5
  ret void
}